target datalayout = "e-m:e-p270:32:32-p271:32:32-p272:64:64-i64:64-i128:128-f80:128-n8:16:32:64-S128"
target triple = "x86_64-unknown-linux-gnu"

%struct.QEnumLookup = type { ptr, ptr, i32 }

@.str = private unnamed_addr constant [22 x i8] c"qemu_in_main_thread()\00", align 1
@.str.1 = private unnamed_addr constant [23 x i8] c"../qemu/block/mirror.c\00", align 1
@__func__.mirror_start = private unnamed_addr constant [13 x i8] c"mirror_start\00", align 1
@.str.2 = private unnamed_addr constant [29 x i8] c"Sync mode '%s' not supported\00", align 1
@MirrorSyncMode_lookup = external constant %struct.QEnumLookup, align 8

; Function Attrs: nounwind sspstrong uwtable
define dso_local void @mirror_start(ptr noundef %job_id, ptr noundef %bs, ptr noundef %target, ptr noundef %replaces, i32 noundef %creation_flags, i64 noundef %speed, i32 noundef %granularity, i64 noundef %buf_size, i32 noundef %mode, i32 noundef %backing_mode, i1 noundef zeroext %zero_target, i32 noundef %on_source_error, i32 noundef %on_target_error, i1 noundef zeroext %unmap, ptr noundef %filter_node_name, i32 noundef %copy_mode, ptr noundef %errp) #0 {
entry:
  %job_id.addr = alloca ptr, align 8
  %bs.addr = alloca ptr, align 8
  %target.addr = alloca ptr, align 8
  %replaces.addr = alloca ptr, align 8
  %creation_flags.addr = alloca i32, align 4
  %speed.addr = alloca i64, align 8
  %granularity.addr = alloca i32, align 4
  %buf_size.addr = alloca i64, align 8
  %mode.addr = alloca i32, align 4
  %backing_mode.addr = alloca i32, align 4
  %zero_target.addr = alloca i8, align 1
  %on_source_error.addr = alloca i32, align 4
  %on_target_error.addr = alloca i32, align 4
  %unmap.addr = alloca i8, align 1
  %filter_node_name.addr = alloca ptr, align 8
  %copy_mode.addr = alloca i32, align 4
  %errp.addr = alloca ptr, align 8
  %is_none_mode = alloca i8, align 1
  %base = alloca ptr, align 8
  store ptr %job_id, ptr %job_id.addr, align 8
  store ptr %bs, ptr %bs.addr, align 8
  store ptr %target, ptr %target.addr, align 8
  store ptr %replaces, ptr %replaces.addr, align 8
  store i32 %creation_flags, ptr %creation_flags.addr, align 4
  store i64 %speed, ptr %speed.addr, align 8
  store i32 %granularity, ptr %granularity.addr, align 4
  store i64 %buf_size, ptr %buf_size.addr, align 8
  store i32 %mode, ptr %mode.addr, align 4
  store i32 %backing_mode, ptr %backing_mode.addr, align 4
  %frombool = zext i1 %zero_target to i8
  store i8 %frombool, ptr %zero_target.addr, align 1
  store i32 %on_source_error, ptr %on_source_error.addr, align 4
  store i32 %on_target_error, ptr %on_target_error.addr, align 4
  %frombool1 = zext i1 %unmap to i8
  store i8 %frombool1, ptr %unmap.addr, align 1
  store ptr %filter_node_name, ptr %filter_node_name.addr, align 8
  store i32 %copy_mode, ptr %copy_mode.addr, align 4
  store ptr %errp, ptr %errp.addr, align 8
  br label %do.body

do.body:                                          ; preds = %entry
  %call = call zeroext i1 @qemu_in_main_thread()
  br i1 %call, label %if.then, label %if.else

if.then:                                          ; preds = %do.body
  br label %if.end

if.else:                                          ; preds = %do.body
  call void @__assert_fail(ptr noundef @.str, ptr noundef @.str.1, i32 noundef 2031, ptr noundef @__PRETTY_FUNCTION__.mirror_start) #9
  unreachable

if.end:                                           ; preds = %if.then
  br label %do.end

do.end:                                           ; preds = %if.end
  %0 = load i32, ptr %mode.addr, align 4
  %cmp = icmp eq i32 %0, 3
  br i1 %cmp, label %if.then3, label %lor.lhs.false

lor.lhs.false:                                    ; preds = %do.end
  %1 = load i32, ptr %mode.addr, align 4
  %cmp2 = icmp eq i32 %1, 4
  br i1 %cmp2, label %if.then3, label %if.end5

if.then3:                                         ; preds = %lor.lhs.false, %do.end
  %2 = load ptr, ptr %errp.addr, align 8
  %3 = load i32, ptr %mode.addr, align 4
  %call4 = call ptr @qapi_enum_lookup(ptr noundef @MirrorSyncMode_lookup, i32 noundef %3)
  call void (ptr, ptr, i32, ptr, ptr, ...) @error_setg_internal(ptr noundef %2, ptr noundef @.str.1, i32 noundef 2036, ptr noundef @__func__.mirror_start, ptr noundef @.str.2, ptr noundef %call4)
  br label %return

if.end5:                                          ; preds = %lor.lhs.false
  call void @bdrv_graph_rdlock_main_loop()
  %4 = load i32, ptr %mode.addr, align 4
  %cmp6 = icmp eq i32 %4, 2
  %frombool7 = zext i1 %cmp6 to i8
  store i8 %frombool7, ptr %is_none_mode, align 1
  %5 = load i32, ptr %mode.addr, align 4
  %cmp8 = icmp eq i32 %5, 0
  br i1 %cmp8, label %cond.true, label %cond.false

cond.true:                                        ; preds = %if.end5
  %6 = load ptr, ptr %bs.addr, align 8
  %call9 = call ptr @bdrv_backing_chain_next(ptr noundef %6)
  br label %cond.end

cond.false:                                       ; preds = %if.end5
  br label %cond.end

cond.end:                                         ; preds = %cond.false, %cond.true
  %cond = phi ptr [ %call9, %cond.true ], [ null, %cond.false ]
  store ptr %cond, ptr %base, align 8
  call void @bdrv_graph_rdunlock_main_loop()
  %7 = load ptr, ptr %job_id.addr, align 8
  %8 = load ptr, ptr %bs.addr, align 8
  %9 = load i32, ptr %creation_flags.addr, align 4
  %10 = load ptr, ptr %target.addr, align 8
  %11 = load ptr, ptr %replaces.addr, align 8
  %12 = load i64, ptr %speed.addr, align 8
  %13 = load i32, ptr %granularity.addr, align 4
  %14 = load i64, ptr %buf_size.addr, align 8
  %15 = load i32, ptr %backing_mode.addr, align 4
  %16 = load i8, ptr %zero_target.addr, align 1
  %tobool = trunc i8 %16 to i1
  %17 = load i32, ptr %on_source_error.addr, align 4
  %18 = load i32, ptr %on_target_error.addr, align 4
  %19 = load i8, ptr %unmap.addr, align 1
  %tobool10 = trunc i8 %19 to i1
  %20 = load i8, ptr %is_none_mode, align 1
  %tobool11 = trunc i8 %20 to i1
  %21 = load ptr, ptr %base, align 8
  %22 = load ptr, ptr %filter_node_name.addr, align 8
  %23 = load i32, ptr %copy_mode.addr, align 4
  %24 = load ptr, ptr %errp.addr, align 8
  %call12 = call ptr @mirror_start_job(ptr noundef %7, ptr noundef %8, i32 noundef %9, ptr noundef %10, ptr noundef %11, i64 noundef %12, i32 noundef %13, i64 noundef %14, i32 noundef %15, i1 noundef zeroext %tobool, i32 noundef %17, i32 noundef %18, i1 noundef zeroext %tobool10, ptr noundef null, ptr noundef null, ptr noundef @mirror_job_driver, i1 noundef zeroext %tobool11, ptr noundef %21, i1 noundef zeroext false, ptr noundef %22, i1 noundef zeroext true, i32 noundef %23, ptr noundef %24)
  br label %return

return:                                           ; preds = %cond.end, %if.then3
  ret void
}