; Function Attrs: nounwind sspstrong uwtable
define dso_local void @mirror_start(ptr noundef %job_id, ptr noundef %bs, ptr noundef %target, ptr noundef %replaces, i32 noundef %creation_flags, i64 noundef %speed, i32 noundef %granularity, i64 noundef %buf_size, i32 noundef %mode, i32 noundef %backing_mode, i1 noundef zeroext %zero_target, i32 noundef %on_source_error, i32 noundef %on_target_error, i1 noundef zeroext %unmap, ptr noundef %filter_node_name, i32 noundef %copy_mode, ptr noundef %errp) local_unnamed_addr #0 {
entry:
  %call = tail call zeroext i1 @qemu_in_main_thread() #12
  br i1 %call, label %do.end, label %if.else

if.else:                                          ; preds = %entry
  tail call void @__assert_fail(ptr noundef nonnull @.str, ptr noundef nonnull @.str.1, i32 noundef 2031, ptr noundef nonnull @__PRETTY_FUNCTION__.mirror_start) #13
  unreachable

do.end:                                           ; preds = %entry
  %0 = add i32 %mode, -3
  %or.cond = icmp ult i32 %0, 2
  br i1 %or.cond, label %if.then3, label %if.end5

if.then3:                                         ; preds = %do.end
  %call4 = tail call ptr @qapi_enum_lookup(ptr noundef nonnull @MirrorSyncMode_lookup, i32 noundef %mode) #12
  tail call void (ptr, ptr, i32, ptr, ptr, ...) @error_setg_internal(ptr noundef %errp, ptr noundef nonnull @.str.1, i32 noundef 2036, ptr noundef nonnull @__func__.mirror_start, ptr noundef nonnull @.str.2, ptr noundef %call4) #12
  br label %return

if.end5:                                          ; preds = %do.end
  tail call void @bdrv_graph_rdlock_main_loop() #12
  %cmp6 = icmp eq i32 %mode, 2
  %cmp8 = icmp eq i32 %mode, 0
  br i1 %cmp8, label %cond.true, label %cond.end

cond.true:                                        ; preds = %if.end5
  %call9 = tail call ptr @bdrv_backing_chain_next(ptr noundef %bs) #12
  br label %cond.end

cond.end:                                         ; preds = %if.end5, %cond.true
  %cond = phi ptr [ %call9, %cond.true ], [ null, %if.end5 ]
  tail call void @bdrv_graph_rdunlock_main_loop() #12
  %call12 = tail call fastcc ptr @mirror_start_job(ptr noundef %job_id, ptr noundef %bs, i32 noundef %creation_flags, ptr noundef %target, ptr noundef %replaces, i64 noundef %speed, i32 noundef %granularity, i64 noundef %buf_size, i32 noundef %backing_mode, i1 noundef zeroext %zero_target, i32 noundef %on_source_error, i32 noundef %on_target_error, i1 noundef zeroext %unmap, ptr noundef null, ptr noundef null, ptr noundef nonnull @mirror_job_driver, i1 noundef zeroext %cmp6, ptr noundef %cond, i1 noundef zeroext false, ptr noundef %filter_node_name, i1 noundef zeroext true, i32 noundef %copy_mode, ptr noundef %errp)
  br label %return

return:                                           ; preds = %cond.end, %if.then3
  ret void
}